#include <math.h>
#include <stdio.h>
#include <stdlib.h>
#include <string.h>

int main() {
    int n,i;
    scanf("%d",&n);
    char jjl[n][260],hbl[n][260];
    for(i=0;i<n;i++) {
        scanf("%s",jjl[i]);
    }
    int len,a;
    for(i=0;i<n;i++) {
        len=strlen(jjl[i]);
        for(a=0;a<len;a++) {
            if(jjl[i][a]=='A') {
                hbl[i][a]='T';
            }
            if(jjl[i][a]=='T') {
                hbl[i][a]='A';
            }
            if(jjl[i][a]=='C') {
                hbl[i][a]='G';
            }
            if(jjl[i][a]=='G') {
                hbl[i][a]='C';
            }
        }
        hbl[i][len]='\0';
    }
    for(i=0;i<n-1;i++) {
        printf("%s\n",hbl[i]);
    }
    printf("%s",hbl[i]);
    return 0;
}

